; Function Attrs: inlinehint mustprogress nounwind uwtable
define internal fastcc void @_ZN12_GLOBAL__N_115HierarchyWorkerD2Ev(ptr noundef nonnull readonly align 8 captures(none) dereferenceable(120) %0) unnamed_addr #4 align 2 personality ptr @__gxx_personality_v0 {
  %2 = getelementptr inbounds nuw i8, ptr %0, i64 64
  tail call fastcc void @_ZN5Yosys7hashlib4dictIPNS_5RTLIL6ModuleESt6vectorIN12_GLOBAL__N_112ReplacedPortESaIS7_EENS0_8hash_opsIS4_EEED2Ev(ptr noundef nonnull align 8 dereferenceable(49) %2) #25
  %3 = getelementptr inbounds nuw i8, ptr %0, i64 8
  %4 = getelementptr inbounds nuw i8, ptr %0, i64 32
  %5 = load ptr, ptr %4, align 8, !tbaa !331
  %.not.i.i.i.i = icmp eq ptr %5, null
  br i1 %.not.i.i.i.i, label %_ZNSt6vectorIN5Yosys7hashlib4poolIPNS0_5RTLIL6ModuleENS1_8hash_opsIS5_EEE7entry_tESaIS9_EED2Ev.exit.i, label %6

6:                                                ; preds = %1
  %7 = getelementptr inbounds nuw i8, ptr %0, i64 48
  %8 = load ptr, ptr %7, align 8, !tbaa !332
  %9 = ptrtoint ptr %8 to i64
  %10 = ptrtoint ptr %5 to i64
  %11 = sub i64 %9, %10
  tail call void @_ZdlPvm(ptr noundef nonnull %5, i64 noundef %11) #26
  br label %_ZNSt6vectorIN5Yosys7hashlib4poolIPNS0_5RTLIL6ModuleENS1_8hash_opsIS5_EEE7entry_tESaIS9_EED2Ev.exit.i

_ZNSt6vectorIN5Yosys7hashlib4poolIPNS0_5RTLIL6ModuleENS1_8hash_opsIS5_EEE7entry_tESaIS9_EED2Ev.exit.i: ; preds = %6, %1
  %12 = load ptr, ptr %3, align 8, !tbaa !219
  %.not.i.i.i1.i = icmp eq ptr %12, null
  br i1 %.not.i.i.i1.i, label %_ZN5Yosys7hashlib4poolIPNS_5RTLIL6ModuleENS0_8hash_opsIS4_EEED2Ev.exit, label %13

13:                                               ; preds = %_ZNSt6vectorIN5Yosys7hashlib4poolIPNS0_5RTLIL6ModuleENS1_8hash_opsIS5_EEE7entry_tESaIS9_EED2Ev.exit.i
  %14 = getelementptr inbounds nuw i8, ptr %0, i64 24
  %15 = load ptr, ptr %14, align 8, !tbaa !220
  %16 = ptrtoint ptr %15 to i64
  %17 = ptrtoint ptr %12 to i64
  %18 = sub i64 %16, %17
  tail call void @_ZdlPvm(ptr noundef nonnull %12, i64 noundef %18) #26
  br label %_ZN5Yosys7hashlib4poolIPNS_5RTLIL6ModuleENS0_8hash_opsIS4_EEED2Ev.exit

_ZN5Yosys7hashlib4poolIPNS_5RTLIL6ModuleENS0_8hash_opsIS4_EEED2Ev.exit: ; preds = %_ZNSt6vectorIN5Yosys7hashlib4poolIPNS0_5RTLIL6ModuleENS1_8hash_opsIS5_EEE7entry_tESaIS9_EED2Ev.exit.i, %13
  ret void
}